; Function Attrs: mustprogress nounwind uwtable
define hidden void @_ZN4cvc58internal5proof22AletheProofPostprocessD0Ev(ptr noundef nonnull align 8 dereferenceable(144) initializes((0, 8)) %0) unnamed_addr #7 align 2 personality ptr @__gxx_personality_v0 {
  store ptr getelementptr inbounds nuw inrange(-16, 16) (i8, ptr @_ZTVN4cvc58internal5proof22AletheProofPostprocessE, i64 16), ptr %0, align 8, !tbaa !19
  %2 = getelementptr inbounds nuw i8, ptr %0, i64 112
  %3 = load ptr, ptr %2, align 8, !tbaa !44
  %4 = getelementptr inbounds nuw i8, ptr %0, i64 128
  %5 = icmp eq ptr %3, %4
  br i1 %5, label %_ZNKSt7__cxx1112basic_stringIcSt11char_traitsIcESaIcEE11_M_is_localEv.exit.thread.i.i.i, label %_ZNKSt7__cxx1112basic_stringIcSt11char_traitsIcESaIcEE11_M_is_localEv.exit.i.i.i

_ZNKSt7__cxx1112basic_stringIcSt11char_traitsIcESaIcEE11_M_is_localEv.exit.thread.i.i.i: ; preds = %1
  %6 = getelementptr inbounds nuw i8, ptr %0, i64 120
  %7 = load i64, ptr %6, align 8, !tbaa !26
  %8 = icmp ult i64 %7, 16
  tail call void @llvm.assume(i1 %8)
  br label %_ZN4cvc58internal5proof22AletheProofPostprocessD2Ev.exit

_ZNKSt7__cxx1112basic_stringIcSt11char_traitsIcESaIcEE11_M_is_localEv.exit.i.i.i: ; preds = %1
  %9 = load i64, ptr %4, align 8, !tbaa !28
  %10 = add i64 %9, 1
  tail call void @_ZdlPvm(ptr noundef %3, i64 noundef %10) #24
  br label %_ZN4cvc58internal5proof22AletheProofPostprocessD2Ev.exit

_ZN4cvc58internal5proof22AletheProofPostprocessD2Ev.exit: ; preds = %_ZNKSt7__cxx1112basic_stringIcSt11char_traitsIcESaIcEE11_M_is_localEv.exit.thread.i.i.i, %_ZNKSt7__cxx1112basic_stringIcSt11char_traitsIcESaIcEE11_M_is_localEv.exit.i.i.i
  %11 = getelementptr inbounds nuw i8, ptr %0, i64 16
  tail call void @_ZN4cvc58internal5proof30AletheProofPostprocessCallbackD2Ev(ptr noundef nonnull align 8 dereferenceable(96) %11) #25
  tail call void @_ZdlPvm(ptr noundef nonnull %0, i64 noundef 144) #24
  ret void
}